; ModuleID = '46/2688.c'
source_filename = "46/2688.c"
target datalayout = "e-m:e-p270:32:32-p271:32:32-p272:64:64-i64:64-f80:128-n8:16:32:64-S128"
target triple = "x86_64-pc-linux-gnu"

@.str = private unnamed_addr constant [5 x i8] c"%d%d\00", align 1
@.str.1 = private unnamed_addr constant [3 x i8] c"%d\00", align 1
@.str.2 = private unnamed_addr constant [4 x i8] c"%d\0A\00", align 1

; Function Attrs: noinline nounwind uwtable
define dso_local i32 @main(i32 %0, i8** %1) #0 {
  %3 = alloca i32, align 4
  %4 = alloca i32, align 4
  %5 = alloca i8**, align 8
  %6 = alloca [100 x [100 x i32]], align 16
  %7 = alloca i32, align 4
  %8 = alloca i32, align 4
  %9 = alloca i32, align 4
  %10 = alloca i32, align 4
  %11 = alloca i32, align 4
  %12 = alloca i32, align 4
  store i32 0, i32* %3, align 4
  store i32 %0, i32* %4, align 4
  store i8** %1, i8*** %5, align 8
  store i32 0, i32* %11, align 4
  store i32 0, i32* %12, align 4
  %13 = call i32 (i8*, ...) @__isoc99_scanf(i8* getelementptr inbounds ([5 x i8], [5 x i8]* @.str, i64 0, i64 0), i32* %7, i32* %8)
  store i32 0, i32* %9, align 4
  br label %14

14:                                               ; preds = %35, %2
  %15 = load i32, i32* %9, align 4
  %16 = load i32, i32* %7, align 4
  %17 = icmp slt i32 %15, %16
  br i1 %17, label %18, label %38

18:                                               ; preds = %14
  store i32 0, i32* %10, align 4
  br label %19

19:                                               ; preds = %31, %18
  %20 = load i32, i32* %10, align 4
  %21 = load i32, i32* %8, align 4
  %22 = icmp slt i32 %20, %21
  br i1 %22, label %23, label %34

23:                                               ; preds = %19
  %24 = load i32, i32* %9, align 4
  %25 = sext i32 %24 to i64
  %26 = getelementptr inbounds [100 x [100 x i32]], [100 x [100 x i32]]* %6, i64 0, i64 %25
  %27 = load i32, i32* %10, align 4
  %28 = sext i32 %27 to i64
  %29 = getelementptr inbounds [100 x i32], [100 x i32]* %26, i64 0, i64 %28
  %30 = call i32 (i8*, ...) @__isoc99_scanf(i8* getelementptr inbounds ([3 x i8], [3 x i8]* @.str.1, i64 0, i64 0), i32* %29)
  br label %31

31:                                               ; preds = %23
  %32 = load i32, i32* %10, align 4
  %33 = add nsw i32 %32, 1
  store i32 %33, i32* %10, align 4
  br label %19

34:                                               ; preds = %19
  br label %35

35:                                               ; preds = %34
  %36 = load i32, i32* %9, align 4
  %37 = add nsw i32 %36, 1
  store i32 %37, i32* %9, align 4
  br label %14

38:                                               ; preds = %14
  br label %39

39:                                               ; preds = %173, %38
  %40 = load i32, i32* %12, align 4
  %41 = load i32, i32* %7, align 4
  %42 = load i32, i32* %8, align 4
  %43 = mul nsw i32 %41, %42
  %44 = icmp ne i32 %40, %43
  br i1 %44, label %45, label %176

45:                                               ; preds = %39
  %46 = load i32, i32* %11, align 4
  %47 = add nsw i32 0, %46
  store i32 %47, i32* %10, align 4
  br label %48

48:                                               ; preds = %65, %45
  %49 = load i32, i32* %10, align 4
  %50 = load i32, i32* %8, align 4
  %51 = load i32, i32* %11, align 4
  %52 = sub nsw i32 %50, %51
  %53 = icmp slt i32 %49, %52
  br i1 %53, label %54, label %68

54:                                               ; preds = %48
  %55 = load i32, i32* %11, align 4
  %56 = sext i32 %55 to i64
  %57 = getelementptr inbounds [100 x [100 x i32]], [100 x [100 x i32]]* %6, i64 0, i64 %56
  %58 = load i32, i32* %10, align 4
  %59 = sext i32 %58 to i64
  %60 = getelementptr inbounds [100 x i32], [100 x i32]* %57, i64 0, i64 %59
  %61 = load i32, i32* %60, align 4
  %62 = call i32 (i8*, ...) @printf(i8* getelementptr inbounds ([4 x i8], [4 x i8]* @.str.2, i64 0, i64 0), i32 %61)
  %63 = load i32, i32* %12, align 4
  %64 = add nsw i32 %63, 1
  store i32 %64, i32* %12, align 4
  br label %65

65:                                               ; preds = %54
  %66 = load i32, i32* %10, align 4
  %67 = add nsw i32 %66, 1
  store i32 %67, i32* %10, align 4
  br label %48

68:                                               ; preds = %48
  %69 = load i32, i32* %12, align 4
  %70 = load i32, i32* %7, align 4
  %71 = load i32, i32* %8, align 4
  %72 = mul nsw i32 %70, %71
  %73 = icmp eq i32 %69, %72
  br i1 %73, label %74, label %75

74:                                               ; preds = %68
  br label %176

75:                                               ; preds = %68
  %76 = load i32, i32* %11, align 4
  %77 = add nsw i32 1, %76
  store i32 %77, i32* %9, align 4
  br label %78

78:                                               ; preds = %98, %75
  %79 = load i32, i32* %9, align 4
  %80 = load i32, i32* %7, align 4
  %81 = load i32, i32* %11, align 4
  %82 = sub nsw i32 %80, %81
  %83 = icmp slt i32 %79, %82
  br i1 %83, label %84, label %101

84:                                               ; preds = %78
  %85 = load i32, i32* %9, align 4
  %86 = sext i32 %85 to i64
  %87 = getelementptr inbounds [100 x [100 x i32]], [100 x [100 x i32]]* %6, i64 0, i64 %86
  %88 = load i32, i32* %8, align 4
  %89 = sub nsw i32 %88, 1
  %90 = load i32, i32* %11, align 4
  %91 = sub nsw i32 %89, %90
  %92 = sext i32 %91 to i64
  %93 = getelementptr inbounds [100 x i32], [100 x i32]* %87, i64 0, i64 %92
  %94 = load i32, i32* %93, align 4
  %95 = call i32 (i8*, ...) @printf(i8* getelementptr inbounds ([4 x i8], [4 x i8]* @.str.2, i64 0, i64 0), i32 %94)
  %96 = load i32, i32* %12, align 4
  %97 = add nsw i32 %96, 1
  store i32 %97, i32* %12, align 4
  br label %98

98:                                               ; preds = %84
  %99 = load i32, i32* %9, align 4
  %100 = add nsw i32 %99, 1
  store i32 %100, i32* %9, align 4
  br label %78

101:                                              ; preds = %78
  %102 = load i32, i32* %12, align 4
  %103 = load i32, i32* %7, align 4
  %104 = load i32, i32* %8, align 4
  %105 = mul nsw i32 %103, %104
  %106 = icmp eq i32 %102, %105
  br i1 %106, label %107, label %108

107:                                              ; preds = %101
  br label %176

108:                                              ; preds = %101
  %109 = load i32, i32* %8, align 4
  %110 = sub nsw i32 %109, 2
  %111 = load i32, i32* %11, align 4
  %112 = sub nsw i32 %110, %111
  store i32 %112, i32* %10, align 4
  br label %113

113:                                              ; preds = %132, %108
  %114 = load i32, i32* %10, align 4
  %115 = load i32, i32* %11, align 4
  %116 = add nsw i32 0, %115
  %117 = icmp sge i32 %114, %116
  br i1 %117, label %118, label %135

118:                                              ; preds = %113
  %119 = load i32, i32* %7, align 4
  %120 = load i32, i32* %11, align 4
  %121 = sub nsw i32 %119, %120
  %122 = sub nsw i32 %121, 1
  %123 = sext i32 %122 to i64
  %124 = getelementptr inbounds [100 x [100 x i32]], [100 x [100 x i32]]* %6, i64 0, i64 %123
  %125 = load i32, i32* %10, align 4
  %126 = sext i32 %125 to i64
  %127 = getelementptr inbounds [100 x i32], [100 x i32]* %124, i64 0, i64 %126
  %128 = load i32, i32* %127, align 4
  %129 = call i32 (i8*, ...) @printf(i8* getelementptr inbounds ([4 x i8], [4 x i8]* @.str.2, i64 0, i64 0), i32 %128)
  %130 = load i32, i32* %12, align 4
  %131 = add nsw i32 %130, 1
  store i32 %131, i32* %12, align 4
  br label %132

132:                                              ; preds = %118
  %133 = load i32, i32* %10, align 4
  %134 = add nsw i32 %133, -1
  store i32 %134, i32* %10, align 4
  br label %113

135:                                              ; preds = %113
  %136 = load i32, i32* %12, align 4
  %137 = load i32, i32* %7, align 4
  %138 = load i32, i32* %8, align 4
  %139 = mul nsw i32 %137, %138
  %140 = icmp eq i32 %136, %139
  br i1 %140, label %141, label %142

141:                                              ; preds = %135
  br label %176

142:                                              ; preds = %135
  %143 = load i32, i32* %7, align 4
  %144 = sub nsw i32 %143, 2
  %145 = load i32, i32* %11, align 4
  %146 = sub nsw i32 %144, %145
  store i32 %146, i32* %9, align 4
  br label %147

147:                                              ; preds = %163, %142
  %148 = load i32, i32* %9, align 4
  %149 = load i32, i32* %11, align 4
  %150 = add nsw i32 1, %149
  %151 = icmp sge i32 %148, %150
  br i1 %151, label %152, label %166

152:                                              ; preds = %147
  %153 = load i32, i32* %9, align 4
  %154 = sext i32 %153 to i64
  %155 = getelementptr inbounds [100 x [100 x i32]], [100 x [100 x i32]]* %6, i64 0, i64 %154
  %156 = load i32, i32* %11, align 4
  %157 = sext i32 %156 to i64
  %158 = getelementptr inbounds [100 x i32], [100 x i32]* %155, i64 0, i64 %157
  %159 = load i32, i32* %158, align 4
  %160 = call i32 (i8*, ...) @printf(i8* getelementptr inbounds ([4 x i8], [4 x i8]* @.str.2, i64 0, i64 0), i32 %159)
  %161 = load i32, i32* %12, align 4
  %162 = add nsw i32 %161, 1
  store i32 %162, i32* %12, align 4
  br label %163

163:                                              ; preds = %152
  %164 = load i32, i32* %9, align 4
  %165 = add nsw i32 %164, -1
  store i32 %165, i32* %9, align 4
  br label %147

166:                                              ; preds = %147
  %167 = load i32, i32* %12, align 4
  %168 = load i32, i32* %7, align 4
  %169 = load i32, i32* %8, align 4
  %170 = mul nsw i32 %168, %169
  %171 = icmp eq i32 %167, %170
  br i1 %171, label %172, label %173

172:                                              ; preds = %166
  br label %176

173:                                              ; preds = %166
  %174 = load i32, i32* %11, align 4
  %175 = add nsw i32 %174, 1
  store i32 %175, i32* %11, align 4
  br label %39

176:                                              ; preds = %172, %141, %107, %74, %39
  ret i32 0
}

declare dso_local i32 @__isoc99_scanf(i8*, ...) #1

declare dso_local i32 @printf(i8*, ...) #1


!llvm.module.flags = !{!0}
!llvm.ident = !{!1}

!0 = !{i32 1, !"wchar_size", i32 4}
!1 = !{!"clang version 10.0.0-4ubuntu1 "}
